target datalayout = "e-m:e-p270:32:32-p271:32:32-p272:64:64-i64:64-i128:128-f80:128-n8:16:32:64-S128"
target triple = "x86_64-pc-linux-gnu"

%"class.std::__cxx11::basic_string" = type { %"struct.std::__cxx11::basic_string<char>::_Alloc_hider", i64, %union.anon.62 }
%"struct.std::__cxx11::basic_string<char>::_Alloc_hider" = type { ptr }
%union.anon.62 = type { i64, [8 x i8] }
%"class.std::allocator.59" = type { i8 }
%"struct.pkpy::StrName" = type { i16 }
%"struct.pkpy::NameExpr" = type { %"struct.pkpy::Expr.base", %"struct.pkpy::StrName", i32, [4 x i8] }
%"struct.pkpy::Expr.base" = type <{ ptr, i32 }>
%"struct.pkpy::Expr" = type <{ ptr, i32, [4 x i8] }>

@.str = private unnamed_addr constant [108 x i8] c"generated/home/dtcxzyw/WorkSpace/Projects/compilers/llvm-opt-benchmark/bench/pocketpy/pocketpy/src/expr.cpp\00", align 1
@.str.2 = private unnamed_addr constant [2 x i8] c":\00", align 1
@.str.3 = private unnamed_addr constant [16 x i8] c" FATAL_ERROR()!\00", align 1
@_ZTISt13runtime_error = external constant ptr

; Function Attrs: mustprogress uwtable
define linkonce_odr void @_ZStplIcSt11char_traitsIcESaIcEENSt7__cxx1112basic_stringIT_T0_T1_EEOS8_PKS5_(ptr dead_on_unwind noalias writable sret(%"class.std::__cxx11::basic_string") align 8 %0, ptr noundef nonnull align 8 dereferenceable(32) %1, ptr noundef %2) #4 comdat {
  %4 = alloca ptr, align 8
  %5 = alloca ptr, align 8
  %6 = alloca ptr, align 8
  store ptr %0, ptr %4, align 8
  store ptr %1, ptr %5, align 8
  store ptr %2, ptr %6, align 8
  %7 = load ptr, ptr %5, align 8
  %8 = load ptr, ptr %6, align 8
  %9 = call noundef nonnull align 8 dereferenceable(32) ptr @_ZNSt7__cxx1112basic_stringIcSt11char_traitsIcESaIcEE6appendEPKc(ptr noundef nonnull align 8 dereferenceable(32) %7, ptr noundef %8)
  call void @_ZNSt7__cxx1112basic_stringIcSt11char_traitsIcESaIcEEC1EOS4_(ptr noundef nonnull align 8 dereferenceable(32) %0, ptr noundef nonnull align 8 dereferenceable(32) %9) #3
  ret void
}

; Function Attrs: mustprogress uwtable
define linkonce_odr void @_ZStplIcSt11char_traitsIcESaIcEENSt7__cxx1112basic_stringIT_T0_T1_EEPKS5_OS8_(ptr dead_on_unwind noalias writable sret(%"class.std::__cxx11::basic_string") align 8 %0, ptr noundef %1, ptr noundef nonnull align 8 dereferenceable(32) %2) #4 comdat {
  %4 = alloca ptr, align 8
  %5 = alloca ptr, align 8
  %6 = alloca ptr, align 8
  store ptr %0, ptr %4, align 8
  store ptr %1, ptr %5, align 8
  store ptr %2, ptr %6, align 8
  %7 = load ptr, ptr %6, align 8
  %8 = load ptr, ptr %5, align 8
  %9 = call noundef nonnull align 8 dereferenceable(32) ptr @_ZNSt7__cxx1112basic_stringIcSt11char_traitsIcESaIcEE6insertEmPKc(ptr noundef nonnull align 8 dereferenceable(32) %7, i64 noundef 0, ptr noundef %8)
  call void @_ZNSt7__cxx1112basic_stringIcSt11char_traitsIcESaIcEEC1EOS4_(ptr noundef nonnull align 8 dereferenceable(32) %0, ptr noundef nonnull align 8 dereferenceable(32) %9) #3
  ret void
}

; Function Attrs: mustprogress uwtable
define noundef zeroext i1 @_ZN4pkpy8NameExpr8emit_delEPNS_15CodeEmitContextE(ptr noundef nonnull align 8 dereferenceable(20) %0, ptr noundef %1) unnamed_addr #4 align 2 personality ptr @__gxx_personality_v0 {
  %3 = alloca ptr, align 8
  %4 = alloca ptr, align 8
  %5 = alloca %"struct.pkpy::StrName", align 2
  %6 = alloca %"struct.pkpy::StrName", align 2
  %7 = alloca %"struct.pkpy::StrName", align 2
  %8 = alloca %"class.std::__cxx11::basic_string", align 8
  %9 = alloca %"class.std::__cxx11::basic_string", align 8
  %10 = alloca %"class.std::__cxx11::basic_string", align 8
  %11 = alloca %"class.std::__cxx11::basic_string", align 8
  %12 = alloca %"class.std::allocator.59", align 1
  %13 = alloca ptr, align 8
  %14 = alloca i32, align 4
  %15 = alloca %"class.std::__cxx11::basic_string", align 8
  %16 = alloca i1, align 1
  store ptr %0, ptr %3, align 8
  store ptr %1, ptr %4, align 8
  %17 = load ptr, ptr %3, align 8
  %18 = getelementptr inbounds %"struct.pkpy::NameExpr", ptr %17, i32 0, i32 2
  %19 = load i32, ptr %18, align 8
  switch i32 %19, label %47 [
    i32 0, label %20
    i32 1, label %31
    i32 2, label %39
  ]

20:                                               ; preds = %2
  %21 = load ptr, ptr %4, align 8
  %22 = load ptr, ptr %4, align 8
  %23 = getelementptr inbounds %"struct.pkpy::NameExpr", ptr %17, i32 0, i32 1
  call void @llvm.memcpy.p0.p0.i64(ptr align 2 %5, ptr align 4 %23, i64 2, i1 false)
  %24 = getelementptr inbounds %"struct.pkpy::StrName", ptr %5, i32 0, i32 0
  %25 = load i16, ptr %24, align 2
  %26 = call noundef i32 @_ZN4pkpy15CodeEmitContext11add_varnameENS_7StrNameE(ptr noundef nonnull align 8 dereferenceable(232) %22, i16 %25)
  %27 = trunc i32 %26 to i16
  %28 = getelementptr inbounds %"struct.pkpy::Expr", ptr %17, i32 0, i32 1
  %29 = load i32, ptr %28, align 8
  %30 = call noundef i32 @_ZN4pkpy15CodeEmitContext5emit_ENS_6OpcodeEtib(ptr noundef nonnull align 8 dereferenceable(232) %21, i8 noundef zeroext 30, i16 noundef zeroext %27, i32 noundef %29, i1 noundef zeroext false)
  br label %81

31:                                               ; preds = %2
  %32 = load ptr, ptr %4, align 8
  %33 = getelementptr inbounds %"struct.pkpy::NameExpr", ptr %17, i32 0, i32 1
  call void @llvm.memcpy.p0.p0.i64(ptr align 2 %6, ptr align 4 %33, i64 2, i1 false)
  %34 = getelementptr inbounds %"struct.pkpy::StrName", ptr %6, i32 0, i32 0
  %35 = load i16, ptr %34, align 2
  %36 = getelementptr inbounds %"struct.pkpy::Expr", ptr %17, i32 0, i32 1
  %37 = load i32, ptr %36, align 8
  %38 = call noundef i32 @_ZN4pkpy15CodeEmitContext5emit_ENS_6OpcodeEtib(ptr noundef nonnull align 8 dereferenceable(232) %32, i8 noundef zeroext 32, i16 noundef zeroext %35, i32 noundef %37, i1 noundef zeroext false)
  br label %81

39:                                               ; preds = %2
  %40 = load ptr, ptr %4, align 8
  %41 = getelementptr inbounds %"struct.pkpy::NameExpr", ptr %17, i32 0, i32 1
  call void @llvm.memcpy.p0.p0.i64(ptr align 2 %7, ptr align 4 %41, i64 2, i1 false)
  %42 = getelementptr inbounds %"struct.pkpy::StrName", ptr %7, i32 0, i32 0
  %43 = load i16, ptr %42, align 2
  %44 = getelementptr inbounds %"struct.pkpy::Expr", ptr %17, i32 0, i32 1
  %45 = load i32, ptr %44, align 8
  %46 = call noundef i32 @_ZN4pkpy15CodeEmitContext5emit_ENS_6OpcodeEtib(ptr noundef nonnull align 8 dereferenceable(232) %40, i8 noundef zeroext 31, i16 noundef zeroext %43, i32 noundef %45, i1 noundef zeroext false)
  br label %81

47:                                               ; preds = %2
  store i1 true, ptr %16, align 1
  %48 = call ptr @__cxa_allocate_exception(i64 16) #3
  call void @_ZNSaIcEC1Ev(ptr noundef nonnull align 1 dereferenceable(1) %12) #3
  invoke void @_ZNSt7__cxx1112basic_stringIcSt11char_traitsIcESaIcEEC2IS3_EEPKcRKS3_(ptr noundef nonnull align 8 dereferenceable(32) %11, ptr noundef @.str.2, ptr noundef nonnull align 1 dereferenceable(1) %12)
          to label %49 unwind label %54

49:                                               ; preds = %47
  invoke void @_ZStplIcSt11char_traitsIcESaIcEENSt7__cxx1112basic_stringIT_T0_T1_EEPKS5_OS8_(ptr dead_on_unwind writable sret(%"class.std::__cxx11::basic_string") align 8 %10, ptr noundef @.str, ptr noundef nonnull align 8 dereferenceable(32) %11)
          to label %50 unwind label %58

50:                                               ; preds = %49
  call void @_ZNSt7__cxx119to_stringEi(ptr dead_on_unwind writable sret(%"class.std::__cxx11::basic_string") align 8 %15, i32 noundef 204) #3
  invoke void @_ZStplIcSt11char_traitsIcESaIcEENSt7__cxx1112basic_stringIT_T0_T1_EEOS8_S9_(ptr dead_on_unwind writable sret(%"class.std::__cxx11::basic_string") align 8 %9, ptr noundef nonnull align 8 dereferenceable(32) %10, ptr noundef nonnull align 8 dereferenceable(32) %15)
          to label %51 unwind label %62

51:                                               ; preds = %50
  invoke void @_ZStplIcSt11char_traitsIcESaIcEENSt7__cxx1112basic_stringIT_T0_T1_EEOS8_PKS5_(ptr dead_on_unwind writable sret(%"class.std::__cxx11::basic_string") align 8 %8, ptr noundef nonnull align 8 dereferenceable(32) %9, ptr noundef @.str.3)
          to label %52 unwind label %66

52:                                               ; preds = %51
  invoke void @_ZNSt13runtime_errorC1ERKNSt7__cxx1112basic_stringIcSt11char_traitsIcESaIcEEE(ptr noundef nonnull align 8 dereferenceable(16) %48, ptr noundef nonnull align 8 dereferenceable(32) %8)
          to label %53 unwind label %70

53:                                               ; preds = %52
  store i1 false, ptr %16, align 1
  invoke void @__cxa_throw(ptr %48, ptr @_ZTISt13runtime_error, ptr @_ZNSt13runtime_errorD1Ev) #16
          to label %87 unwind label %70

54:                                               ; preds = %47
  %55 = landingpad { ptr, i32 }
          cleanup
  %56 = extractvalue { ptr, i32 } %55, 0
  store ptr %56, ptr %13, align 8
  %57 = extractvalue { ptr, i32 } %55, 1
  store i32 %57, ptr %14, align 4
  br label %77

58:                                               ; preds = %49
  %59 = landingpad { ptr, i32 }
          cleanup
  %60 = extractvalue { ptr, i32 } %59, 0
  store ptr %60, ptr %13, align 8
  %61 = extractvalue { ptr, i32 } %59, 1
  store i32 %61, ptr %14, align 4
  br label %76

62:                                               ; preds = %50
  %63 = landingpad { ptr, i32 }
          cleanup
  %64 = extractvalue { ptr, i32 } %63, 0
  store ptr %64, ptr %13, align 8
  %65 = extractvalue { ptr, i32 } %63, 1
  store i32 %65, ptr %14, align 4
  br label %75

66:                                               ; preds = %51
  %67 = landingpad { ptr, i32 }
          cleanup
  %68 = extractvalue { ptr, i32 } %67, 0
  store ptr %68, ptr %13, align 8
  %69 = extractvalue { ptr, i32 } %67, 1
  store i32 %69, ptr %14, align 4
  br label %74

70:                                               ; preds = %53, %52
  %71 = landingpad { ptr, i32 }
          cleanup
  %72 = extractvalue { ptr, i32 } %71, 0
  store ptr %72, ptr %13, align 8
  %73 = extractvalue { ptr, i32 } %71, 1
  store i32 %73, ptr %14, align 4
  call void @_ZNSt7__cxx1112basic_stringIcSt11char_traitsIcESaIcEED1Ev(ptr noundef nonnull align 8 dereferenceable(32) %8) #3
  br label %74

74:                                               ; preds = %70, %66
  call void @_ZNSt7__cxx1112basic_stringIcSt11char_traitsIcESaIcEED1Ev(ptr noundef nonnull align 8 dereferenceable(32) %9) #3
  br label %75

75:                                               ; preds = %74, %62
  call void @_ZNSt7__cxx1112basic_stringIcSt11char_traitsIcESaIcEED1Ev(ptr noundef nonnull align 8 dereferenceable(32) %15) #3
  call void @_ZNSt7__cxx1112basic_stringIcSt11char_traitsIcESaIcEED1Ev(ptr noundef nonnull align 8 dereferenceable(32) %10) #3
  br label %76

76:                                               ; preds = %75, %58
  call void @_ZNSt7__cxx1112basic_stringIcSt11char_traitsIcESaIcEED1Ev(ptr noundef nonnull align 8 dereferenceable(32) %11) #3
  br label %77

77:                                               ; preds = %76, %54
  call void @_ZNSaIcED1Ev(ptr noundef nonnull align 1 dereferenceable(1) %12) #3
  %78 = load i1, ptr %16, align 1
  br i1 %78, label %79, label %80

79:                                               ; preds = %77
  call void @__cxa_free_exception(ptr %48) #3
  br label %80

80:                                               ; preds = %79, %77
  br label %82

81:                                               ; preds = %39, %31, %20
  ret i1 true

82:                                               ; preds = %80
  %83 = load ptr, ptr %13, align 8
  %84 = load i32, ptr %14, align 4
  %85 = insertvalue { ptr, i32 } poison, ptr %83, 0
  %86 = insertvalue { ptr, i32 } %85, i32 %84, 1
  resume { ptr, i32 } %86

87:                                               ; preds = %53
  unreachable
}