; Function Attrs: mustprogress uwtable
define noundef zeroext i1 @_ZN4pkpy8NameExpr8emit_delEPNS_15CodeEmitContextE(ptr noundef nonnull readonly align 8 captures(none) dereferenceable(20) %0, ptr noundef readonly captures(none) %1) unnamed_addr #5 align 2 personality ptr @__gxx_personality_v0 {
  %3 = alloca %"class.std::__cxx11::basic_string", align 8
  %4 = alloca %"class.std::__cxx11::basic_string", align 8
  %5 = alloca %"class.std::__cxx11::basic_string", align 8
  %6 = alloca %"class.std::__cxx11::basic_string", align 8
  %7 = alloca %"class.std::allocator.59", align 1
  %8 = alloca %"class.std::__cxx11::basic_string", align 8
  %9 = getelementptr inbounds nuw i8, ptr %0, i64 16
  %10 = load i32, ptr %9, align 8
  switch i32 %10, label %28 [
    i32 0, label %11
    i32 1, label %18
    i32 2, label %23
  ]

11:                                               ; preds = %2
  %12 = getelementptr inbounds nuw i8, ptr %0, i64 12
  %.sroa.03.0.copyload = load i16, ptr %12, align 4
  %13 = tail call noundef i32 @_ZN4pkpy15CodeEmitContext11add_varnameENS_7StrNameE(ptr noundef nonnull align 8 dereferenceable(232) %1, i16 %.sroa.03.0.copyload)
  %14 = trunc i32 %13 to i16
  %15 = getelementptr inbounds nuw i8, ptr %0, i64 8
  %16 = load i32, ptr %15, align 8
  %17 = tail call noundef i32 @_ZN4pkpy15CodeEmitContext5emit_ENS_6OpcodeEtib(ptr noundef nonnull align 8 dereferenceable(232) %1, i8 noundef zeroext 30, i16 noundef zeroext %14, i32 noundef %16, i1 noundef zeroext false)
  br label %50

18:                                               ; preds = %2
  %19 = getelementptr inbounds nuw i8, ptr %0, i64 12
  %.sroa.02.0.copyload = load i16, ptr %19, align 4
  %20 = getelementptr inbounds nuw i8, ptr %0, i64 8
  %21 = load i32, ptr %20, align 8
  %22 = tail call noundef i32 @_ZN4pkpy15CodeEmitContext5emit_ENS_6OpcodeEtib(ptr noundef nonnull align 8 dereferenceable(232) %1, i8 noundef zeroext 32, i16 noundef zeroext %.sroa.02.0.copyload, i32 noundef %21, i1 noundef zeroext false)
  br label %50

23:                                               ; preds = %2
  %24 = getelementptr inbounds nuw i8, ptr %0, i64 12
  %.sroa.0.0.copyload = load i16, ptr %24, align 4
  %25 = getelementptr inbounds nuw i8, ptr %0, i64 8
  %26 = load i32, ptr %25, align 8
  %27 = tail call noundef i32 @_ZN4pkpy15CodeEmitContext5emit_ENS_6OpcodeEtib(ptr noundef nonnull align 8 dereferenceable(232) %1, i8 noundef zeroext 31, i16 noundef zeroext %.sroa.0.0.copyload, i32 noundef %26, i1 noundef zeroext false)
  br label %50

28:                                               ; preds = %2
  %29 = tail call ptr @__cxa_allocate_exception(i64 16) #32
  call void @_ZNSaIcEC1Ev(ptr noundef nonnull align 1 dereferenceable(1) %7) #32
  invoke void @_ZNSt7__cxx1112basic_stringIcSt11char_traitsIcESaIcEEC2IS3_EEPKcRKS3_(ptr noundef nonnull align 8 dereferenceable(32) %6, ptr noundef nonnull @.str.2, ptr noundef nonnull align 1 dereferenceable(1) %7)
          to label %30 unwind label %.thread

30:                                               ; preds = %28
  %31 = invoke noundef nonnull align 8 dereferenceable(32) ptr @_ZNSt7__cxx1112basic_stringIcSt11char_traitsIcESaIcEE6insertEmPKc(ptr noundef nonnull align 8 dereferenceable(32) %6, i64 noundef 0, ptr noundef nonnull @.str)
          to label %32 unwind label %38

32:                                               ; preds = %30
  call void @_ZNSt7__cxx1112basic_stringIcSt11char_traitsIcESaIcEEC1EOS4_(ptr noundef nonnull align 8 dereferenceable(32) %5, ptr noundef nonnull align 8 dereferenceable(32) %31) #32
  call void @_ZNSt7__cxx119to_stringEi(ptr dead_on_unwind nonnull writable sret(%"class.std::__cxx11::basic_string") align 8 %8, i32 noundef 204) #32
  invoke void @_ZStplIcSt11char_traitsIcESaIcEENSt7__cxx1112basic_stringIT_T0_T1_EEOS8_S9_(ptr dead_on_unwind nonnull writable sret(%"class.std::__cxx11::basic_string") align 8 %4, ptr noundef nonnull align 8 dereferenceable(32) %5, ptr noundef nonnull align 8 dereferenceable(32) %8)
          to label %33 unwind label %40

33:                                               ; preds = %32
  %34 = invoke noundef nonnull align 8 dereferenceable(32) ptr @_ZNSt7__cxx1112basic_stringIcSt11char_traitsIcESaIcEE6appendEPKc(ptr noundef nonnull align 8 dereferenceable(32) %4, ptr noundef nonnull @.str.3)
          to label %35 unwind label %42

35:                                               ; preds = %33
  call void @_ZNSt7__cxx1112basic_stringIcSt11char_traitsIcESaIcEEC1EOS4_(ptr noundef nonnull align 8 dereferenceable(32) %3, ptr noundef nonnull align 8 dereferenceable(32) %34) #32
  invoke void @_ZNSt13runtime_errorC1ERKNSt7__cxx1112basic_stringIcSt11char_traitsIcESaIcEEE(ptr noundef nonnull align 8 dereferenceable(16) %29, ptr noundef nonnull align 8 dereferenceable(32) %3)
          to label %36 unwind label %44

36:                                               ; preds = %35
  invoke void @__cxa_throw(ptr nonnull %29, ptr nonnull @_ZTISt13runtime_error, ptr nonnull @_ZNSt13runtime_errorD1Ev) #29
          to label %52 unwind label %44

.thread:                                          ; preds = %28
  %37 = landingpad { ptr, i32 }
          cleanup
  call void @_ZNSaIcED1Ev(ptr noundef nonnull align 1 dereferenceable(1) %7) #32
  br label %49

38:                                               ; preds = %30
  %39 = landingpad { ptr, i32 }
          cleanup
  br label %48

40:                                               ; preds = %32
  %41 = landingpad { ptr, i32 }
          cleanup
  br label %47

42:                                               ; preds = %33
  %43 = landingpad { ptr, i32 }
          cleanup
  br label %46

44:                                               ; preds = %36, %35
  %.0 = phi i1 [ false, %36 ], [ true, %35 ]
  %45 = landingpad { ptr, i32 }
          cleanup
  call void @_ZNSt7__cxx1112basic_stringIcSt11char_traitsIcESaIcEED1Ev(ptr noundef nonnull align 8 dereferenceable(32) %3) #32
  br label %46

46:                                               ; preds = %44, %42
  %.pn = phi { ptr, i32 } [ %45, %44 ], [ %43, %42 ]
  %.4 = phi i1 [ %.0, %44 ], [ true, %42 ]
  call void @_ZNSt7__cxx1112basic_stringIcSt11char_traitsIcESaIcEED1Ev(ptr noundef nonnull align 8 dereferenceable(32) %4) #32
  br label %47

47:                                               ; preds = %46, %40
  %.pn.pn = phi { ptr, i32 } [ %.pn, %46 ], [ %41, %40 ]
  %.3 = phi i1 [ %.4, %46 ], [ true, %40 ]
  call void @_ZNSt7__cxx1112basic_stringIcSt11char_traitsIcESaIcEED1Ev(ptr noundef nonnull align 8 dereferenceable(32) %8) #32
  call void @_ZNSt7__cxx1112basic_stringIcSt11char_traitsIcESaIcEED1Ev(ptr noundef nonnull align 8 dereferenceable(32) %5) #32
  br label %48

48:                                               ; preds = %38, %47
  %.pn.pn.pn = phi { ptr, i32 } [ %.pn.pn, %47 ], [ %39, %38 ]
  %.2 = phi i1 [ %.3, %47 ], [ true, %38 ]
  call void @_ZNSt7__cxx1112basic_stringIcSt11char_traitsIcESaIcEED1Ev(ptr noundef nonnull align 8 dereferenceable(32) %6) #32
  call void @_ZNSaIcED1Ev(ptr noundef nonnull align 1 dereferenceable(1) %7) #32
  br i1 %.2, label %49, label %51

49:                                               ; preds = %.thread, %48
  %.pn.pn.pn.pn24 = phi { ptr, i32 } [ %37, %.thread ], [ %.pn.pn.pn, %48 ]
  call void @__cxa_free_exception(ptr %29) #32
  br label %51

50:                                               ; preds = %23, %18, %11
  ret i1 true

51:                                               ; preds = %48, %49
  %.pn.pn.pn.pn23 = phi { ptr, i32 } [ %.pn.pn.pn, %48 ], [ %.pn.pn.pn.pn24, %49 ]
  resume { ptr, i32 } %.pn.pn.pn.pn23

52:                                               ; preds = %36
  unreachable
}